target datalayout = "e-m:e-p270:32:32-p271:32:32-p272:64:64-i64:64-i128:128-f80:128-n8:16:32:64-S128"
target triple = "x86_64-pc-linux-gnu"

@.str.80 = private unnamed_addr constant [39 x i8] c"../cpython/Modules/_testinternalcapi.c\00", align 1
@.str.257 = private unnamed_addr constant [29 x i8] c"_PyXIData_Release(data) == 0\00", align 1
@__PRETTY_FUNCTION__._xid_capsule_destructor = private unnamed_addr constant [41 x i8] c"void _xid_capsule_destructor(PyObject *)\00", align 1

; Function Attrs: nounwind uwtable
define internal void @_xid_capsule_destructor(ptr noundef %0) #0 {
  %2 = alloca ptr, align 8
  %3 = alloca ptr, align 8
  store ptr %0, ptr %2, align 8, !tbaa !3
  call void @llvm.lifetime.start.p0(i64 8, ptr %3) #10
  %4 = load ptr, ptr %2, align 8, !tbaa !3
  %5 = call ptr @PyCapsule_GetPointer(ptr noundef %4, ptr noundef null)
  store ptr %5, ptr %3, align 8, !tbaa !242
  %6 = load ptr, ptr %3, align 8, !tbaa !242
  %7 = icmp ne ptr %6, null
  br i1 %7, label %8, label %17

8:                                                ; preds = %1
  %9 = load ptr, ptr %3, align 8, !tbaa !242
  %10 = call i32 @_PyXIData_Release(ptr noundef %9)
  %11 = icmp eq i32 %10, 0
  br i1 %11, label %12, label %13

12:                                               ; preds = %8
  br label %15

13:                                               ; preds = %8
  call void @__assert_fail(ptr noundef @.str.257, ptr noundef @.str.80, i32 noundef 1685, ptr noundef @__PRETTY_FUNCTION__._xid_capsule_destructor) #11
  unreachable

14:                                               ; No predecessors!
  br label %15

15:                                               ; preds = %14, %12
  %16 = load ptr, ptr %3, align 8, !tbaa !242
  call void @_PyXIData_Free(ptr noundef %16)
  br label %17

17:                                               ; preds = %15, %1
  call void @llvm.lifetime.end.p0(i64 8, ptr %3) #10
  ret void
}