; Function Attrs: nounwind uwtable
define internal void @_xid_capsule_destructor(ptr noundef %0) #0 {
  %2 = tail call ptr @PyCapsule_GetPointer(ptr noundef %0, ptr noundef null) #11
  %.not = icmp eq ptr %2, null
  br i1 %.not, label %8, label %3

3:                                                ; preds = %1
  %4 = tail call i32 @_PyXIData_Release(ptr noundef nonnull %2) #11
  %5 = icmp eq i32 %4, 0
  br i1 %5, label %7, label %6

6:                                                ; preds = %3
  tail call void @__assert_fail(ptr noundef nonnull @.str.257, ptr noundef nonnull @.str.80, i32 noundef 1685, ptr noundef nonnull @__PRETTY_FUNCTION__._xid_capsule_destructor) #12
  unreachable

7:                                                ; preds = %3
  tail call void @_PyXIData_Free(ptr noundef nonnull %2) #11
  br label %8

8:                                                ; preds = %7, %1
  ret void
}